target datalayout = "e-m:e-p270:32:32-p271:32:32-p272:64:64-i64:64-i128:128-f80:128-n8:16:32:64-S128"
target triple = "x86_64-pc-linux-gnu"

%struct.assoc_mgr_lock_t = type { i32, i32, i32, i32, i32, i32, i32 }
%struct.slurm_conf_t = type { i64, ptr, i16, ptr, ptr, ptr, ptr, ptr, i16, ptr, ptr, ptr, ptr, ptr, ptr, ptr, i16, ptr, ptr, ptr, ptr, i16, ptr, ptr, ptr, i64, ptr, ptr, ptr, ptr, i16, ptr, ptr, i16, i32, ptr, i32, ptr, i32, i32, ptr, ptr, i64, i64, ptr, i16, i16, ptr, i32, i32, ptr, i32, ptr, i32, i16, i16, i16, ptr, i16, i16, ptr, ptr, i32, i16, i16, ptr, i32, i16, ptr, ptr, ptr, ptr, i16, ptr, ptr, ptr, ptr, i32, ptr, ptr, ptr, ptr, i16, i16, ptr, i32, i32, i32, i16, i16, ptr, ptr, i16, ptr, ptr, i32, i32, i32, i32, i32, i64, i32, i32, i16, ptr, ptr, i32, ptr, ptr, ptr, i16, i32, ptr, ptr, i16, ptr, ptr, i32, i16, ptr, ptr, ptr, ptr, i32, i32, i16, i16, i32, ptr, i16, ptr, i32, i32, i32, i32, i32, i32, ptr, i16, ptr, ptr, i32, i16, ptr, i32, i16, i16, ptr, ptr, ptr, i16, ptr, ptr, ptr, ptr, i16, i16, ptr, i16, ptr, i16, ptr, i16, ptr, i16, ptr, ptr, ptr, ptr, i16, ptr, ptr, ptr, i32, ptr, i32, ptr, ptr, i16, ptr, ptr, i32, i16, ptr, ptr, i16, i16, ptr, i16, ptr, ptr, ptr, i32, ptr, i16, i16, ptr, ptr, ptr, ptr, ptr, ptr, ptr, ptr, i16, i32, i16, ptr, ptr, ptr, ptr, i32, ptr, ptr, ptr, i16, ptr, ptr, ptr, i16, ptr, i16, ptr, i16, i16, ptr }
%struct.job_record = type { i32, ptr, ptr, ptr, ptr, i16, i32, i32, i32, ptr, i32, ptr, ptr, i16, ptr, double, i64, ptr, ptr, ptr, ptr, ptr, ptr, i32, ptr, i32, i64, i64, i32, i32, ptr, i16, i64, i64, i8, i32, ptr, ptr, ptr, ptr, ptr, ptr, ptr, ptr, i32, ptr, ptr, i32, ptr, i32, ptr, i32, ptr, i32, ptr, ptr, ptr, ptr, ptr, ptr, i32, i16, i64, ptr, ptr, ptr, ptr, %struct.acct_policy_limit_set_t, i16, ptr, ptr, ptr, ptr, ptr, i32, ptr, ptr, ptr, ptr, ptr, i32, i32, ptr, ptr, ptr, i16, ptr, ptr, i8, ptr, ptr, i64, i64, i8, i32, i32, i8, i32, ptr, i32, i64, i32, ptr, ptr, ptr, i8, i16, i64, i32, ptr, ptr, ptr, ptr, ptr, i16, i32, ptr, ptr, ptr, ptr, i32, ptr, i32, i16, i64, ptr, i32, i32, ptr, i64, ptr, ptr, i64, i32, i32, i64, i32, i32, ptr, ptr, ptr, ptr, ptr, ptr, ptr, ptr, ptr, ptr, ptr, ptr, i32, ptr, i16, i16, i16, i16, ptr, i32, i32, i8, i64 }
%struct.acct_policy_limit_set_t = type { i16, i16, ptr }
%struct.slurmdb_qos_rec_t = type { i64, ptr, i32, i32, i32, i32, i32, i32, ptr, ptr, ptr, ptr, ptr, ptr, i32, double, i32, i32, i32, i32, i32, i32, ptr, ptr, ptr, ptr, ptr, ptr, ptr, ptr, ptr, ptr, ptr, ptr, ptr, ptr, i32, i32, ptr, ptr, ptr, ptr, ptr, i16, i32, i32, ptr, ptr, double, double }
%struct.part_record = type { i32, ptr, ptr, ptr, ptr, ptr, ptr, i32, ptr, ptr, ptr, ptr, ptr, i32, i64, i32, ptr, ptr, ptr, ptr, ptr, i32, i32, ptr, i32, i32, i64, i32, i32, i16, i32, i32, i32, i32, ptr, ptr, ptr, ptr, ptr, double, i16, i16, i16, i16, ptr, ptr, i16, i16, i32, i16, i32, i32, i32, i32, i16, ptr, ptr, ptr }

@slurm_conf = external global %struct.slurm_conf_t, align 8
@__const.acct_policy_is_job_preempt_exempt.locks = private unnamed_addr constant %struct.assoc_mgr_lock_t { i32 0, i32 0, i32 1, i32 0, i32 0, i32 0, i32 0 }, align 4

; Function Attrs: nounwind uwtable
define dso_local void @acct_policy_set_qos_order(ptr noundef %0, ptr noundef %1, ptr noundef %2) #0 {
  %4 = alloca ptr, align 8
  %5 = alloca ptr, align 8
  %6 = alloca ptr, align 8
  store ptr %0, ptr %4, align 8
  store ptr %1, ptr %5, align 8
  store ptr %2, ptr %6, align 8
  %7 = load ptr, ptr %5, align 8
  store ptr null, ptr %7, align 8
  %8 = load ptr, ptr %6, align 8
  store ptr null, ptr %8, align 8
  %9 = load ptr, ptr %4, align 8
  %10 = getelementptr inbounds nuw %struct.job_record, ptr %9, i32 0, i32 103
  %11 = load ptr, ptr %10, align 8
  %12 = icmp ne ptr %11, null
  br i1 %12, label %13, label %71

13:                                               ; preds = %3
  %14 = load ptr, ptr %4, align 8
  %15 = getelementptr inbounds nuw %struct.job_record, ptr %14, i32 0, i32 89
  %16 = load ptr, ptr %15, align 8
  %17 = icmp ne ptr %16, null
  br i1 %17, label %18, label %65

18:                                               ; preds = %13
  %19 = load ptr, ptr %4, align 8
  %20 = getelementptr inbounds nuw %struct.job_record, ptr %19, i32 0, i32 89
  %21 = load ptr, ptr %20, align 8
  %22 = getelementptr inbounds nuw %struct.part_record, ptr %21, i32 0, i32 45
  %23 = load ptr, ptr %22, align 8
  %24 = icmp ne ptr %23, null
  br i1 %24, label %25, label %65

25:                                               ; preds = %18
  %26 = load ptr, ptr %4, align 8
  %27 = getelementptr inbounds nuw %struct.job_record, ptr %26, i32 0, i32 103
  %28 = load ptr, ptr %27, align 8
  %29 = getelementptr inbounds nuw %struct.slurmdb_qos_rec_t, ptr %28, i32 0, i32 3
  %30 = load i32, ptr %29, align 4
  %31 = zext i32 %30 to i64
  %32 = and i64 %31, 128
  %33 = icmp ne i64 %32, 0
  br i1 %33, label %34, label %45

34:                                               ; preds = %25
  %35 = load ptr, ptr %4, align 8
  %36 = getelementptr inbounds nuw %struct.job_record, ptr %35, i32 0, i32 103
  %37 = load ptr, ptr %36, align 8
  %38 = load ptr, ptr %5, align 8
  store ptr %37, ptr %38, align 8
  %39 = load ptr, ptr %4, align 8
  %40 = getelementptr inbounds nuw %struct.job_record, ptr %39, i32 0, i32 89
  %41 = load ptr, ptr %40, align 8
  %42 = getelementptr inbounds nuw %struct.part_record, ptr %41, i32 0, i32 45
  %43 = load ptr, ptr %42, align 8
  %44 = load ptr, ptr %6, align 8
  store ptr %43, ptr %44, align 8
  br label %56

45:                                               ; preds = %25
  %46 = load ptr, ptr %4, align 8
  %47 = getelementptr inbounds nuw %struct.job_record, ptr %46, i32 0, i32 89
  %48 = load ptr, ptr %47, align 8
  %49 = getelementptr inbounds nuw %struct.part_record, ptr %48, i32 0, i32 45
  %50 = load ptr, ptr %49, align 8
  %51 = load ptr, ptr %5, align 8
  store ptr %50, ptr %51, align 8
  %52 = load ptr, ptr %4, align 8
  %53 = getelementptr inbounds nuw %struct.job_record, ptr %52, i32 0, i32 103
  %54 = load ptr, ptr %53, align 8
  %55 = load ptr, ptr %6, align 8
  store ptr %54, ptr %55, align 8
  br label %56

56:                                               ; preds = %45, %34
  %57 = load ptr, ptr %5, align 8
  %58 = load ptr, ptr %57, align 8
  %59 = load ptr, ptr %6, align 8
  %60 = load ptr, ptr %59, align 8
  %61 = icmp eq ptr %58, %60
  br i1 %61, label %62, label %64

62:                                               ; preds = %56
  %63 = load ptr, ptr %6, align 8
  store ptr null, ptr %63, align 8
  br label %64

64:                                               ; preds = %62, %56
  br label %70

65:                                               ; preds = %18, %13
  %66 = load ptr, ptr %4, align 8
  %67 = getelementptr inbounds nuw %struct.job_record, ptr %66, i32 0, i32 103
  %68 = load ptr, ptr %67, align 8
  %69 = load ptr, ptr %5, align 8
  store ptr %68, ptr %69, align 8
  br label %70

70:                                               ; preds = %65, %64
  br label %91

71:                                               ; preds = %3
  %72 = load ptr, ptr %4, align 8
  %73 = getelementptr inbounds nuw %struct.job_record, ptr %72, i32 0, i32 89
  %74 = load ptr, ptr %73, align 8
  %75 = icmp ne ptr %74, null
  br i1 %75, label %76, label %90

76:                                               ; preds = %71
  %77 = load ptr, ptr %4, align 8
  %78 = getelementptr inbounds nuw %struct.job_record, ptr %77, i32 0, i32 89
  %79 = load ptr, ptr %78, align 8
  %80 = getelementptr inbounds nuw %struct.part_record, ptr %79, i32 0, i32 45
  %81 = load ptr, ptr %80, align 8
  %82 = icmp ne ptr %81, null
  br i1 %82, label %83, label %90

83:                                               ; preds = %76
  %84 = load ptr, ptr %4, align 8
  %85 = getelementptr inbounds nuw %struct.job_record, ptr %84, i32 0, i32 89
  %86 = load ptr, ptr %85, align 8
  %87 = getelementptr inbounds nuw %struct.part_record, ptr %86, i32 0, i32 45
  %88 = load ptr, ptr %87, align 8
  %89 = load ptr, ptr %5, align 8
  store ptr %88, ptr %89, align 8
  br label %90

90:                                               ; preds = %83, %76, %71
  br label %91

91:                                               ; preds = %90, %70
  ret void
}

; Function Attrs: nounwind uwtable
define dso_local i64 @acct_policy_get_preemptable_time(ptr noundef %0) #0 {
  %2 = alloca i64, align 8
  %3 = alloca ptr, align 8
  %4 = alloca ptr, align 8
  %5 = alloca ptr, align 8
  %6 = alloca i32, align 4
  %7 = alloca i32, align 4
  %8 = alloca i32, align 4
  %9 = alloca i64, align 8
  %10 = alloca i32, align 4
  store ptr %0, ptr %3, align 8
  call void @llvm.lifetime.start.p0(i64 8, ptr %4) #8
  call void @llvm.lifetime.start.p0(i64 8, ptr %5) #8
  call void @llvm.lifetime.start.p0(i64 4, ptr %6) #8
  call void @llvm.lifetime.start.p0(i64 4, ptr %7) #8
  call void @llvm.lifetime.start.p0(i64 4, ptr %8) #8
  call void @llvm.lifetime.start.p0(i64 8, ptr %9) #8
  %11 = load ptr, ptr %3, align 8
  %12 = getelementptr inbounds nuw %struct.job_record, ptr %11, i32 0, i32 124
  %13 = load i64, ptr %12, align 8
  store i64 %13, ptr %9, align 8
  %14 = load ptr, ptr %3, align 8
  call void @acct_policy_set_qos_order(ptr noundef %14, ptr noundef %4, ptr noundef %5)
  %15 = load ptr, ptr %4, align 8
  %16 = icmp ne ptr %15, null
  br i1 %16, label %17, label %21

17:                                               ; preds = %1
  %18 = load ptr, ptr %4, align 8
  %19 = getelementptr inbounds nuw %struct.slurmdb_qos_rec_t, ptr %18, i32 0, i32 44
  %20 = load i32, ptr %19, align 4
  br label %22

21:                                               ; preds = %1
  br label %22

22:                                               ; preds = %21, %17
  %23 = phi i32 [ %20, %17 ], [ -1, %21 ]
  store i32 %23, ptr %6, align 4
  %24 = load ptr, ptr %5, align 8
  %25 = icmp ne ptr %24, null
  br i1 %25, label %26, label %30

26:                                               ; preds = %22
  %27 = load ptr, ptr %5, align 8
  %28 = getelementptr inbounds nuw %struct.slurmdb_qos_rec_t, ptr %27, i32 0, i32 44
  %29 = load i32, ptr %28, align 4
  br label %31

30:                                               ; preds = %22
  br label %31

31:                                               ; preds = %30, %26
  %32 = phi i32 [ %29, %26 ], [ -1, %30 ]
  store i32 %32, ptr %7, align 4
  %33 = load i32, ptr getelementptr inbounds nuw (%struct.slurm_conf_t, ptr @slurm_conf, i32 0, i32 117), align 8
  store i32 %33, ptr %8, align 4
  %34 = load i32, ptr %6, align 4
  %35 = icmp ne i32 %34, -1
  br i1 %35, label %36, label %41

36:                                               ; preds = %31
  %37 = load i64, ptr %9, align 8
  %38 = load i32, ptr %6, align 4
  %39 = zext i32 %38 to i64
  %40 = add nsw i64 %37, %39
  store i64 %40, ptr %2, align 8
  store i32 1, ptr %10, align 4
  br label %59

41:                                               ; preds = %31
  %42 = load i32, ptr %7, align 4
  %43 = icmp ne i32 %42, -1
  br i1 %43, label %44, label %49

44:                                               ; preds = %41
  %45 = load i64, ptr %9, align 8
  %46 = load i32, ptr %7, align 4
  %47 = zext i32 %46 to i64
  %48 = add nsw i64 %45, %47
  store i64 %48, ptr %2, align 8
  store i32 1, ptr %10, align 4
  br label %59

49:                                               ; preds = %41
  %50 = load i32, ptr %8, align 4
  %51 = icmp ne i32 %50, -1
  br i1 %51, label %52, label %57

52:                                               ; preds = %49
  %53 = load i64, ptr %9, align 8
  %54 = load i32, ptr %8, align 4
  %55 = zext i32 %54 to i64
  %56 = add nsw i64 %53, %55
  store i64 %56, ptr %2, align 8
  store i32 1, ptr %10, align 4
  br label %59

57:                                               ; preds = %49
  %58 = load i64, ptr %9, align 8
  store i64 %58, ptr %2, align 8
  store i32 1, ptr %10, align 4
  br label %59

59:                                               ; preds = %57, %52, %44, %36
  call void @llvm.lifetime.end.p0(i64 8, ptr %9) #8
  call void @llvm.lifetime.end.p0(i64 4, ptr %8) #8
  call void @llvm.lifetime.end.p0(i64 4, ptr %7) #8
  call void @llvm.lifetime.end.p0(i64 4, ptr %6) #8
  call void @llvm.lifetime.end.p0(i64 8, ptr %5) #8
  call void @llvm.lifetime.end.p0(i64 8, ptr %4) #8
  %60 = load i64, ptr %2, align 8
  ret i64 %60
}

; Function Attrs: nounwind uwtable
define dso_local zeroext i1 @acct_policy_is_job_preempt_exempt(ptr noundef %0) #0 {
  %2 = alloca ptr, align 8
  %3 = alloca i64, align 8
  %4 = alloca %struct.assoc_mgr_lock_t, align 4
  %5 = alloca i64, align 8
  store ptr %0, ptr %2, align 8
  call void @llvm.lifetime.start.p0(i64 8, ptr %3) #8
  %6 = call i64 @time(ptr noundef null) #8
  store i64 %6, ptr %3, align 8
  call void @llvm.lifetime.start.p0(i64 28, ptr %4) #8
  call void @llvm.memcpy.p0.p0.i64(ptr align 4 %4, ptr align 4 @__const.acct_policy_is_job_preempt_exempt.locks, i64 28, i1 false)
  call void @assoc_mgr_lock(ptr noundef %4)
  call void @llvm.lifetime.start.p0(i64 8, ptr %5) #8
  %7 = load ptr, ptr %2, align 8
  %8 = call i64 @acct_policy_get_preemptable_time(ptr noundef %7)
  store i64 %8, ptr %5, align 8
  call void @assoc_mgr_unlock(ptr noundef %4)
  %9 = load i64, ptr %3, align 8
  %10 = load i64, ptr %5, align 8
  %11 = icmp slt i64 %9, %10
  call void @llvm.lifetime.end.p0(i64 8, ptr %5) #8
  call void @llvm.lifetime.end.p0(i64 28, ptr %4) #8
  call void @llvm.lifetime.end.p0(i64 8, ptr %3) #8
  ret i1 %11
}