; Function Attrs: nounwind uwtable
define dso_local zeroext i1 @acct_policy_is_job_preempt_exempt(ptr noundef readonly captures(none) %0) local_unnamed_addr #0 {
  %2 = alloca %struct.assoc_mgr_lock_t, align 4
  %3 = tail call i64 @time(ptr noundef null) #15
  call void @llvm.lifetime.start.p0(i64 28, ptr nonnull %2) #15
  call void @llvm.memcpy.p0.p0.i64(ptr noundef nonnull align 4 dereferenceable(28) %2, ptr noundef nonnull align 4 dereferenceable(28) @__const.acct_policy_is_job_preempt_exempt.locks, i64 28, i1 false)
  call void @assoc_mgr_lock(ptr noundef nonnull %2) #15
  %4 = getelementptr inbounds nuw i8, ptr %0, i64 912
  %5 = load i64, ptr %4, align 8
  %6 = getelementptr inbounds nuw i8, ptr %0, i64 768
  %7 = load ptr, ptr %6, align 8
  %.not.i.i = icmp eq ptr %7, null
  %8 = getelementptr inbounds nuw i8, ptr %0, i64 672
  %9 = load ptr, ptr %8, align 8
  %.not27.i.i = icmp eq ptr %9, null
  br i1 %.not.i.i, label %19, label %10

10:                                               ; preds = %1
  br i1 %.not27.i.i, label %acct_policy_set_qos_order.exit.thread36.i, label %11

11:                                               ; preds = %10
  %12 = getelementptr inbounds nuw i8, ptr %9, i64 296
  %13 = load ptr, ptr %12, align 8
  %.not30.i.i = icmp eq ptr %13, null
  br i1 %.not30.i.i, label %acct_policy_set_qos_order.exit.thread36.i, label %14

14:                                               ; preds = %11
  %15 = getelementptr inbounds nuw i8, ptr %7, i64 20
  %16 = load i32, ptr %15, align 4
  %17 = and i32 %16, 128
  %.not31.i.i = icmp eq i32 %17, 0
  %spec.select.i = select i1 %.not31.i.i, ptr %13, ptr %7
  %18 = icmp eq ptr %13, %7
  br i1 %18, label %acct_policy_set_qos_order.exit.thread36.i, label %acct_policy_set_qos_order.exit.i

19:                                               ; preds = %1
  br i1 %.not27.i.i, label %.thread41.i, label %20

20:                                               ; preds = %19
  %21 = getelementptr inbounds nuw i8, ptr %9, i64 296
  %22 = load ptr, ptr %21, align 8
  %.not28.i.i = icmp eq ptr %22, null
  br i1 %.not28.i.i, label %.thread41.i, label %acct_policy_set_qos_order.exit.thread36.i

acct_policy_set_qos_order.exit.i:                 ; preds = %14
  %23 = select i1 %.not31.i.i, ptr %7, ptr %13
  %24 = getelementptr inbounds nuw i8, ptr %23, i64 292
  %25 = load i32, ptr %24, align 4
  br label %acct_policy_set_qos_order.exit.thread36.i

acct_policy_set_qos_order.exit.thread36.i:        ; preds = %acct_policy_set_qos_order.exit.i, %20, %14, %11, %10
  %spec.select.pn.i = phi ptr [ %spec.select.i, %acct_policy_set_qos_order.exit.i ], [ %7, %11 ], [ %7, %10 ], [ %22, %20 ], [ %spec.select.i, %14 ]
  %26 = phi i32 [ %25, %acct_policy_set_qos_order.exit.i ], [ -1, %11 ], [ -1, %10 ], [ -1, %20 ], [ -1, %14 ]
  %.in.i = getelementptr inbounds nuw i8, ptr %spec.select.pn.i, i64 292
  %27 = load i32, ptr %.in.i, align 4
  %.not18.i = icmp eq i32 %27, -1
  br i1 %.not18.i, label %31, label %28

28:                                               ; preds = %acct_policy_set_qos_order.exit.thread36.i
  %29 = zext i32 %27 to i64
  %30 = add nsw i64 %5, %29
  br label %acct_policy_get_preemptable_time.exit

31:                                               ; preds = %acct_policy_set_qos_order.exit.thread36.i
  %.not19.i = icmp eq i32 %26, -1
  br i1 %.not19.i, label %.thread41.i, label %32

32:                                               ; preds = %31
  %33 = zext i32 %26 to i64
  %34 = add nsw i64 %5, %33
  br label %acct_policy_get_preemptable_time.exit

.thread41.i:                                      ; preds = %31, %20, %19
  %35 = load i32, ptr getelementptr inbounds nuw (i8, ptr @slurm_conf, i64 792), align 8
  %.not20.i = icmp eq i32 %35, -1
  br i1 %.not20.i, label %acct_policy_get_preemptable_time.exit, label %36

36:                                               ; preds = %.thread41.i
  %37 = zext i32 %35 to i64
  %38 = add nsw i64 %5, %37
  br label %acct_policy_get_preemptable_time.exit

acct_policy_get_preemptable_time.exit:            ; preds = %28, %32, %.thread41.i, %36
  %.0.i = phi i64 [ %30, %28 ], [ %34, %32 ], [ %38, %36 ], [ %5, %.thread41.i ]
  call void @assoc_mgr_unlock(ptr noundef nonnull %2) #15
  %39 = icmp slt i64 %3, %.0.i
  call void @llvm.lifetime.end.p0(i64 28, ptr nonnull %2) #15
  ret i1 %39
}